; Function Attrs: nofree norecurse nosync nounwind memory(argmem: write) uwtable
define internal void @DC8uvNoTopLeft_SSE2(ptr noundef writeonly captures(none) %0) #4 {
  br label %2

2:                                                ; preds = %2, %1
  %indvars.iv.i = phi i64 [ 0, %1 ], [ %indvars.iv.next.i, %2 ]
  %3 = shl nuw nsw i64 %indvars.iv.i, 5
  %4 = getelementptr inbounds nuw i8, ptr %0, i64 %3
  store i64 -9187201950435737472, ptr %4, align 1, !tbaa !7
  %indvars.iv.next.i = add nuw nsw i64 %indvars.iv.i, 1
  %exitcond.not.i = icmp eq i64 %indvars.iv.next.i, 8
  br i1 %exitcond.not.i, label %Put8x8uv_SSE2.exit, label %2, !llvm.loop !23

Put8x8uv_SSE2.exit:                               ; preds = %2
  ret void
}